target datalayout = "e-m:e-p270:32:32-p271:32:32-p272:64:64-i64:64-i128:128-f80:128-n8:16:32:64-S128"
target triple = "x86_64-pc-linux-gnu"

%struct.EState = type { i32, i32, ptr, ptr, ptr, i32, ptr, ptr, ptr, ptr, ptr, ptr, ptr, ptr, ptr, ptr, i32, ptr, ptr, ptr, ptr, ptr, ptr, ptr, ptr, ptr, ptr, i64, i64, i32, i32, i8, ptr, ptr, ptr, ptr, ptr, i8, i32, i32, ptr, i32, ptr, ptr, ptr, ptr }
%struct.ForEachState = type { ptr, i32 }
%struct.List = type { i32, i32, i32, ptr, [0 x %union.ListCell] }
%union.ListCell = type { ptr }
%struct.ResultRelInfo = type { i32, i32, ptr, i32, ptr, ptr, i16, ptr, i8, ptr, ptr, ptr, i8, i8, ptr, ptr, ptr, ptr, ptr, ptr, ptr, ptr, ptr, ptr, i8, i32, i32, i32, ptr, ptr, ptr, ptr, ptr, ptr, ptr, i32, i32, ptr, ptr, ptr, ptr, [3 x ptr], ptr, ptr, ptr, i8, ptr, i8, ptr, ptr, ptr, ptr }
%struct.RelationData = type { %struct.RelFileLocator, ptr, i32, i32, i8, i8, i8, i8, i8, i32, i32, i32, i32, ptr, ptr, i32, %struct.LockInfoData, ptr, ptr, ptr, ptr, ptr, i8, ptr, ptr, ptr, ptr, ptr, ptr, i32, ptr, i8, ptr, ptr, i32, i8, i32, ptr, i8, ptr, ptr, ptr, ptr, ptr, ptr, ptr, i32, ptr, ptr, ptr, ptr, ptr, ptr, ptr, ptr, ptr, ptr, ptr, ptr, ptr, ptr, ptr, ptr, ptr, ptr, ptr, i32, i8, ptr }
%struct.RelFileLocator = type { i32, i32, i32 }
%struct.LockInfoData = type { %struct.LockRelId }
%struct.LockRelId = type { i32, i32 }
%struct.Node = type { i32 }

@CurrentMemoryContext = external global ptr, align 8

; Function Attrs: inlinehint nounwind uwtable
define internal ptr @newNode(i64 noundef %0, i32 noundef %1) #3 {
  %3 = alloca i64, align 8
  %4 = alloca i32, align 4
  %5 = alloca ptr, align 8
  store i64 %0, ptr %3, align 8
  store i32 %1, ptr %4, align 4
  call void @llvm.lifetime.start.p0(i64 8, ptr %5) #9
  %6 = load i64, ptr %3, align 8
  %7 = call ptr @palloc0(i64 noundef %6)
  store ptr %7, ptr %5, align 8
  %8 = load i32, ptr %4, align 4
  %9 = load ptr, ptr %5, align 8
  %10 = getelementptr inbounds nuw %struct.Node, ptr %9, i32 0, i32 0
  store i32 %8, ptr %10, align 4
  %11 = load ptr, ptr %5, align 8
  call void @llvm.lifetime.end.p0(i64 8, ptr %5) #9
  ret ptr %11
}

; Function Attrs: inlinehint nounwind uwtable
define internal ptr @MemoryContextSwitchTo(ptr noundef %0) #3 {
  %2 = alloca ptr, align 8
  %3 = alloca ptr, align 8
  store ptr %0, ptr %2, align 8
  call void @llvm.lifetime.start.p0(i64 8, ptr %3) #9
  %4 = load ptr, ptr @CurrentMemoryContext, align 8
  store ptr %4, ptr %3, align 8
  %5 = load ptr, ptr %2, align 8
  store ptr %5, ptr @CurrentMemoryContext, align 8
  %6 = load ptr, ptr %3, align 8
  call void @llvm.lifetime.end.p0(i64 8, ptr %3) #9
  ret ptr %6
}

; Function Attrs: nounwind uwtable
define dso_local ptr @ExecGetTriggerResultRel(ptr noundef %0, i32 noundef %1, ptr noundef %2) #0 {
  %4 = alloca ptr, align 8
  %5 = alloca ptr, align 8
  %6 = alloca i32, align 4
  %7 = alloca ptr, align 8
  %8 = alloca ptr, align 8
  %9 = alloca ptr, align 8
  %10 = alloca ptr, align 8
  %11 = alloca ptr, align 8
  %12 = alloca %struct.ForEachState, align 8
  %13 = alloca i32, align 4
  %14 = alloca %struct.ForEachState, align 8
  %15 = alloca %struct.ForEachState, align 8
  store ptr %0, ptr %5, align 8
  store i32 %1, ptr %6, align 4
  store ptr %2, ptr %7, align 8
  call void @llvm.lifetime.start.p0(i64 8, ptr %8) #9
  call void @llvm.lifetime.start.p0(i64 8, ptr %9) #9
  call void @llvm.lifetime.start.p0(i64 8, ptr %10) #9
  call void @llvm.lifetime.start.p0(i64 8, ptr %11) #9
  call void @llvm.lifetime.start.p0(i64 16, ptr %12) #9
  %16 = getelementptr inbounds nuw %struct.ForEachState, ptr %12, i32 0, i32 0
  %17 = load ptr, ptr %5, align 8
  %18 = getelementptr inbounds nuw %struct.EState, ptr %17, i32 0, i32 18
  %19 = load ptr, ptr %18, align 8
  store ptr %19, ptr %16, align 8
  %20 = getelementptr inbounds nuw %struct.ForEachState, ptr %12, i32 0, i32 1
  store i32 0, ptr %20, align 8
  %21 = getelementptr i8, ptr %12, i64 12
  call void @llvm.memset.p0.i64(ptr align 4 %21, i8 0, i64 4, i1 false)
  br label %22

22:                                               ; preds = %61, %3
  %23 = getelementptr inbounds nuw %struct.ForEachState, ptr %12, i32 0, i32 0
  %24 = load ptr, ptr %23, align 8
  %25 = icmp ne ptr %24, null
  br i1 %25, label %26, label %43

26:                                               ; preds = %22
  %27 = getelementptr inbounds nuw %struct.ForEachState, ptr %12, i32 0, i32 1
  %28 = load i32, ptr %27, align 8
  %29 = getelementptr inbounds nuw %struct.ForEachState, ptr %12, i32 0, i32 0
  %30 = load ptr, ptr %29, align 8
  %31 = getelementptr inbounds nuw %struct.List, ptr %30, i32 0, i32 1
  %32 = load i32, ptr %31, align 4
  %33 = icmp slt i32 %28, %32
  br i1 %33, label %34, label %43

34:                                               ; preds = %26
  %35 = getelementptr inbounds nuw %struct.ForEachState, ptr %12, i32 0, i32 0
  %36 = load ptr, ptr %35, align 8
  %37 = getelementptr inbounds nuw %struct.List, ptr %36, i32 0, i32 3
  %38 = load ptr, ptr %37, align 8
  %39 = getelementptr inbounds nuw %struct.ForEachState, ptr %12, i32 0, i32 1
  %40 = load i32, ptr %39, align 8
  %41 = sext i32 %40 to i64
  %42 = getelementptr inbounds %union.ListCell, ptr %38, i64 %41
  store ptr %42, ptr %9, align 8
  br label %44

43:                                               ; preds = %26, %22
  store ptr null, ptr %9, align 8
  br label %44

44:                                               ; preds = %43, %34
  %45 = phi i32 [ 1, %34 ], [ 0, %43 ]
  %46 = icmp ne i32 %45, 0
  br i1 %46, label %48, label %47

47:                                               ; preds = %44
  store i32 2, ptr %13, align 4
  br label %65

48:                                               ; preds = %44
  %49 = load ptr, ptr %9, align 8
  %50 = load ptr, ptr %49, align 8
  store ptr %50, ptr %8, align 8
  %51 = load ptr, ptr %8, align 8
  %52 = getelementptr inbounds nuw %struct.ResultRelInfo, ptr %51, i32 0, i32 2
  %53 = load ptr, ptr %52, align 8
  %54 = getelementptr inbounds nuw %struct.RelationData, ptr %53, i32 0, i32 15
  %55 = load i32, ptr %54, align 8
  %56 = load i32, ptr %6, align 4
  %57 = icmp eq i32 %55, %56
  br i1 %57, label %58, label %60

58:                                               ; preds = %48
  %59 = load ptr, ptr %8, align 8
  store ptr %59, ptr %4, align 8
  store i32 1, ptr %13, align 4
  br label %65

60:                                               ; preds = %48
  br label %61

61:                                               ; preds = %60
  %62 = getelementptr inbounds nuw %struct.ForEachState, ptr %12, i32 0, i32 1
  %63 = load i32, ptr %62, align 8
  %64 = add i32 %63, 1
  store i32 %64, ptr %62, align 8
  br label %22, !llvm.loop !16

65:                                               ; preds = %58, %47
  call void @llvm.lifetime.end.p0(i64 16, ptr %12) #9
  %66 = load i32, ptr %13, align 4
  switch i32 %66, label %195 [
    i32 2, label %67
  ]

67:                                               ; preds = %65
  call void @llvm.lifetime.start.p0(i64 16, ptr %14) #9
  %68 = getelementptr inbounds nuw %struct.ForEachState, ptr %14, i32 0, i32 0
  %69 = load ptr, ptr %5, align 8
  %70 = getelementptr inbounds nuw %struct.EState, ptr %69, i32 0, i32 20
  %71 = load ptr, ptr %70, align 8
  store ptr %71, ptr %68, align 8
  %72 = getelementptr inbounds nuw %struct.ForEachState, ptr %14, i32 0, i32 1
  store i32 0, ptr %72, align 8
  %73 = getelementptr i8, ptr %14, i64 12
  call void @llvm.memset.p0.i64(ptr align 4 %73, i8 0, i64 4, i1 false)
  br label %74

74:                                               ; preds = %113, %67
  %75 = getelementptr inbounds nuw %struct.ForEachState, ptr %14, i32 0, i32 0
  %76 = load ptr, ptr %75, align 8
  %77 = icmp ne ptr %76, null
  br i1 %77, label %78, label %95

78:                                               ; preds = %74
  %79 = getelementptr inbounds nuw %struct.ForEachState, ptr %14, i32 0, i32 1
  %80 = load i32, ptr %79, align 8
  %81 = getelementptr inbounds nuw %struct.ForEachState, ptr %14, i32 0, i32 0
  %82 = load ptr, ptr %81, align 8
  %83 = getelementptr inbounds nuw %struct.List, ptr %82, i32 0, i32 1
  %84 = load i32, ptr %83, align 4
  %85 = icmp slt i32 %80, %84
  br i1 %85, label %86, label %95

86:                                               ; preds = %78
  %87 = getelementptr inbounds nuw %struct.ForEachState, ptr %14, i32 0, i32 0
  %88 = load ptr, ptr %87, align 8
  %89 = getelementptr inbounds nuw %struct.List, ptr %88, i32 0, i32 3
  %90 = load ptr, ptr %89, align 8
  %91 = getelementptr inbounds nuw %struct.ForEachState, ptr %14, i32 0, i32 1
  %92 = load i32, ptr %91, align 8
  %93 = sext i32 %92 to i64
  %94 = getelementptr inbounds %union.ListCell, ptr %90, i64 %93
  store ptr %94, ptr %9, align 8
  br label %96

95:                                               ; preds = %78, %74
  store ptr null, ptr %9, align 8
  br label %96

96:                                               ; preds = %95, %86
  %97 = phi i32 [ 1, %86 ], [ 0, %95 ]
  %98 = icmp ne i32 %97, 0
  br i1 %98, label %100, label %99

99:                                               ; preds = %96
  store i32 5, ptr %13, align 4
  br label %117

100:                                              ; preds = %96
  %101 = load ptr, ptr %9, align 8
  %102 = load ptr, ptr %101, align 8
  store ptr %102, ptr %8, align 8
  %103 = load ptr, ptr %8, align 8
  %104 = getelementptr inbounds nuw %struct.ResultRelInfo, ptr %103, i32 0, i32 2
  %105 = load ptr, ptr %104, align 8
  %106 = getelementptr inbounds nuw %struct.RelationData, ptr %105, i32 0, i32 15
  %107 = load i32, ptr %106, align 8
  %108 = load i32, ptr %6, align 4
  %109 = icmp eq i32 %107, %108
  br i1 %109, label %110, label %112

110:                                              ; preds = %100
  %111 = load ptr, ptr %8, align 8
  store ptr %111, ptr %4, align 8
  store i32 1, ptr %13, align 4
  br label %117

112:                                              ; preds = %100
  br label %113

113:                                              ; preds = %112
  %114 = getelementptr inbounds nuw %struct.ForEachState, ptr %14, i32 0, i32 1
  %115 = load i32, ptr %114, align 8
  %116 = add i32 %115, 1
  store i32 %116, ptr %114, align 8
  br label %74, !llvm.loop !17

117:                                              ; preds = %110, %99
  call void @llvm.lifetime.end.p0(i64 16, ptr %14) #9
  %118 = load i32, ptr %13, align 4
  switch i32 %118, label %195 [
    i32 5, label %119
  ]

119:                                              ; preds = %117
  call void @llvm.lifetime.start.p0(i64 16, ptr %15) #9
  %120 = getelementptr inbounds nuw %struct.ForEachState, ptr %15, i32 0, i32 0
  %121 = load ptr, ptr %5, align 8
  %122 = getelementptr inbounds nuw %struct.EState, ptr %121, i32 0, i32 21
  %123 = load ptr, ptr %122, align 8
  store ptr %123, ptr %120, align 8
  %124 = getelementptr inbounds nuw %struct.ForEachState, ptr %15, i32 0, i32 1
  store i32 0, ptr %124, align 8
  %125 = getelementptr i8, ptr %15, i64 12
  call void @llvm.memset.p0.i64(ptr align 4 %125, i8 0, i64 4, i1 false)
  br label %126

126:                                              ; preds = %165, %119
  %127 = getelementptr inbounds nuw %struct.ForEachState, ptr %15, i32 0, i32 0
  %128 = load ptr, ptr %127, align 8
  %129 = icmp ne ptr %128, null
  br i1 %129, label %130, label %147

130:                                              ; preds = %126
  %131 = getelementptr inbounds nuw %struct.ForEachState, ptr %15, i32 0, i32 1
  %132 = load i32, ptr %131, align 8
  %133 = getelementptr inbounds nuw %struct.ForEachState, ptr %15, i32 0, i32 0
  %134 = load ptr, ptr %133, align 8
  %135 = getelementptr inbounds nuw %struct.List, ptr %134, i32 0, i32 1
  %136 = load i32, ptr %135, align 4
  %137 = icmp slt i32 %132, %136
  br i1 %137, label %138, label %147

138:                                              ; preds = %130
  %139 = getelementptr inbounds nuw %struct.ForEachState, ptr %15, i32 0, i32 0
  %140 = load ptr, ptr %139, align 8
  %141 = getelementptr inbounds nuw %struct.List, ptr %140, i32 0, i32 3
  %142 = load ptr, ptr %141, align 8
  %143 = getelementptr inbounds nuw %struct.ForEachState, ptr %15, i32 0, i32 1
  %144 = load i32, ptr %143, align 8
  %145 = sext i32 %144 to i64
  %146 = getelementptr inbounds %union.ListCell, ptr %142, i64 %145
  store ptr %146, ptr %9, align 8
  br label %148

147:                                              ; preds = %130, %126
  store ptr null, ptr %9, align 8
  br label %148

148:                                              ; preds = %147, %138
  %149 = phi i32 [ 1, %138 ], [ 0, %147 ]
  %150 = icmp ne i32 %149, 0
  br i1 %150, label %152, label %151

151:                                              ; preds = %148
  store i32 8, ptr %13, align 4
  br label %169

152:                                              ; preds = %148
  %153 = load ptr, ptr %9, align 8
  %154 = load ptr, ptr %153, align 8
  store ptr %154, ptr %8, align 8
  %155 = load ptr, ptr %8, align 8
  %156 = getelementptr inbounds nuw %struct.ResultRelInfo, ptr %155, i32 0, i32 2
  %157 = load ptr, ptr %156, align 8
  %158 = getelementptr inbounds nuw %struct.RelationData, ptr %157, i32 0, i32 15
  %159 = load i32, ptr %158, align 8
  %160 = load i32, ptr %6, align 4
  %161 = icmp eq i32 %159, %160
  br i1 %161, label %162, label %164

162:                                              ; preds = %152
  %163 = load ptr, ptr %8, align 8
  store ptr %163, ptr %4, align 8
  store i32 1, ptr %13, align 4
  br label %169

164:                                              ; preds = %152
  br label %165

165:                                              ; preds = %164
  %166 = getelementptr inbounds nuw %struct.ForEachState, ptr %15, i32 0, i32 1
  %167 = load i32, ptr %166, align 8
  %168 = add i32 %167, 1
  store i32 %168, ptr %166, align 8
  br label %126, !llvm.loop !18

169:                                              ; preds = %162, %151
  call void @llvm.lifetime.end.p0(i64 16, ptr %15) #9
  %170 = load i32, ptr %13, align 4
  switch i32 %170, label %195 [
    i32 8, label %171
  ]

171:                                              ; preds = %169
  %172 = load i32, ptr %6, align 4
  %173 = call ptr @table_open(i32 noundef %172, i32 noundef 0)
  store ptr %173, ptr %10, align 8
  %174 = load ptr, ptr %5, align 8
  %175 = getelementptr inbounds nuw %struct.EState, ptr %174, i32 0, i32 25
  %176 = load ptr, ptr %175, align 8
  %177 = call ptr @MemoryContextSwitchTo(ptr noundef %176)
  store ptr %177, ptr %11, align 8
  %178 = call ptr @newNode(i64 noundef 392, i32 noundef 387)
  store ptr %178, ptr %8, align 8
  %179 = load ptr, ptr %8, align 8
  %180 = load ptr, ptr %10, align 8
  %181 = load ptr, ptr %7, align 8
  %182 = load ptr, ptr %5, align 8
  %183 = getelementptr inbounds nuw %struct.EState, ptr %182, i32 0, i32 30
  %184 = load i32, ptr %183, align 4
  call void @InitResultRelInfo(ptr noundef %179, ptr noundef %180, i32 noundef 0, ptr noundef %181, i32 noundef %184)
  %185 = load ptr, ptr %5, align 8
  %186 = getelementptr inbounds nuw %struct.EState, ptr %185, i32 0, i32 21
  %187 = load ptr, ptr %186, align 8
  %188 = load ptr, ptr %8, align 8
  %189 = call ptr @lappend(ptr noundef %187, ptr noundef %188)
  %190 = load ptr, ptr %5, align 8
  %191 = getelementptr inbounds nuw %struct.EState, ptr %190, i32 0, i32 21
  store ptr %189, ptr %191, align 8
  %192 = load ptr, ptr %11, align 8
  %193 = call ptr @MemoryContextSwitchTo(ptr noundef %192)
  %194 = load ptr, ptr %8, align 8
  store ptr %194, ptr %4, align 8
  store i32 1, ptr %13, align 4
  br label %195

195:                                              ; preds = %171, %169, %117, %65
  call void @llvm.lifetime.end.p0(i64 8, ptr %11) #9
  call void @llvm.lifetime.end.p0(i64 8, ptr %10) #9
  call void @llvm.lifetime.end.p0(i64 8, ptr %9) #9
  call void @llvm.lifetime.end.p0(i64 8, ptr %8) #9
  %196 = load ptr, ptr %4, align 8
  ret ptr %196
}