; Function Attrs: nounwind uwtable
define dso_local ptr @ExecGetTriggerResultRel(ptr noundef captures(none) %0, i32 noundef %1, ptr noundef %2) local_unnamed_addr #0 {
  %4 = getelementptr inbounds nuw i8, ptr %0, i64 136
  %5 = load ptr, ptr %4, align 8
  %.not = icmp eq ptr %5, null
  br i1 %.not, label %._crit_edge, label %.lr.ph

.lr.ph:                                           ; preds = %3
  %6 = getelementptr inbounds nuw i8, ptr %5, i64 4
  %7 = load i32, ptr %6, align 4
  %8 = icmp sgt i32 %7, 0
  br i1 %8, label %.lr.ph94, label %._crit_edge

.lr.ph94:                                         ; preds = %.lr.ph
  %9 = getelementptr inbounds nuw i8, ptr %5, i64 16
  %10 = load ptr, ptr %9, align 8
  %wide.trip.count = zext nneg i32 %7 to i64
  br label %12

11:                                               ; preds = %12
  %indvars.iv.next = add nuw nsw i64 %indvars.iv, 1
  %exitcond.not = icmp eq i64 %indvars.iv.next, %wide.trip.count
  br i1 %exitcond.not, label %._crit_edge, label %12

12:                                               ; preds = %.lr.ph94, %11
  %indvars.iv = phi i64 [ 0, %.lr.ph94 ], [ %indvars.iv.next, %11 ]
  %13 = getelementptr inbounds nuw %union.ListCell, ptr %10, i64 %indvars.iv
  %14 = load ptr, ptr %13, align 8
  %15 = getelementptr inbounds nuw i8, ptr %14, i64 8
  %16 = load ptr, ptr %15, align 8
  %17 = getelementptr inbounds nuw i8, ptr %16, i64 72
  %18 = load i32, ptr %17, align 8
  %19 = icmp eq i32 %18, %1
  br i1 %19, label %.loopexit, label %11

._crit_edge:                                      ; preds = %11, %.lr.ph, %3
  %20 = getelementptr inbounds nuw i8, ptr %0, i64 152
  %21 = load ptr, ptr %20, align 8
  %.not59 = icmp eq ptr %21, null
  br i1 %.not59, label %._crit_edge98, label %.lr.ph97

.lr.ph97:                                         ; preds = %._crit_edge
  %22 = getelementptr inbounds nuw i8, ptr %21, i64 4
  %23 = load i32, ptr %22, align 4
  %24 = icmp sgt i32 %23, 0
  br i1 %24, label %.lr.ph102, label %._crit_edge98

.lr.ph102:                                        ; preds = %.lr.ph97
  %25 = getelementptr inbounds nuw i8, ptr %21, i64 16
  %26 = load ptr, ptr %25, align 8
  %wide.trip.count122 = zext nneg i32 %23 to i64
  br label %28

27:                                               ; preds = %28
  %indvars.iv.next120 = add nuw nsw i64 %indvars.iv119, 1
  %exitcond123.not = icmp eq i64 %indvars.iv.next120, %wide.trip.count122
  br i1 %exitcond123.not, label %._crit_edge98, label %28

28:                                               ; preds = %.lr.ph102, %27
  %indvars.iv119 = phi i64 [ 0, %.lr.ph102 ], [ %indvars.iv.next120, %27 ]
  %29 = getelementptr inbounds nuw %union.ListCell, ptr %26, i64 %indvars.iv119
  %30 = load ptr, ptr %29, align 8
  %31 = getelementptr inbounds nuw i8, ptr %30, i64 8
  %32 = load ptr, ptr %31, align 8
  %33 = getelementptr inbounds nuw i8, ptr %32, i64 72
  %34 = load i32, ptr %33, align 8
  %35 = icmp eq i32 %34, %1
  br i1 %35, label %.loopexit, label %27

._crit_edge98:                                    ; preds = %27, %.lr.ph97, %._crit_edge
  %36 = getelementptr inbounds nuw i8, ptr %0, i64 160
  %37 = load ptr, ptr %36, align 8
  %.not61 = icmp eq ptr %37, null
  br i1 %.not61, label %._crit_edge106, label %.lr.ph105

.lr.ph105:                                        ; preds = %._crit_edge98
  %38 = getelementptr inbounds nuw i8, ptr %37, i64 4
  %39 = load i32, ptr %38, align 4
  %40 = icmp sgt i32 %39, 0
  br i1 %40, label %.lr.ph110, label %._crit_edge106

.lr.ph110:                                        ; preds = %.lr.ph105
  %41 = getelementptr inbounds nuw i8, ptr %37, i64 16
  %42 = load ptr, ptr %41, align 8
  %wide.trip.count127 = zext nneg i32 %39 to i64
  br label %44

43:                                               ; preds = %44
  %indvars.iv.next125 = add nuw nsw i64 %indvars.iv124, 1
  %exitcond128.not = icmp eq i64 %indvars.iv.next125, %wide.trip.count127
  br i1 %exitcond128.not, label %._crit_edge106, label %44

44:                                               ; preds = %.lr.ph110, %43
  %indvars.iv124 = phi i64 [ 0, %.lr.ph110 ], [ %indvars.iv.next125, %43 ]
  %45 = getelementptr inbounds nuw %union.ListCell, ptr %42, i64 %indvars.iv124
  %46 = load ptr, ptr %45, align 8
  %47 = getelementptr inbounds nuw i8, ptr %46, i64 8
  %48 = load ptr, ptr %47, align 8
  %49 = getelementptr inbounds nuw i8, ptr %48, i64 72
  %50 = load i32, ptr %49, align 8
  %51 = icmp eq i32 %50, %1
  br i1 %51, label %.loopexit, label %43

._crit_edge106:                                   ; preds = %43, %.lr.ph105, %._crit_edge98
  %52 = tail call ptr @table_open(i32 noundef %1, i32 noundef 0) #9
  %53 = getelementptr inbounds nuw i8, ptr %0, i64 192
  %54 = load ptr, ptr %53, align 8
  %55 = load ptr, ptr @CurrentMemoryContext, align 8
  store ptr %54, ptr @CurrentMemoryContext, align 8
  %56 = tail call noundef ptr @palloc0(i64 noundef 392) #9
  store i32 387, ptr %56, align 4
  %57 = getelementptr inbounds nuw i8, ptr %0, i64 228
  %58 = load i32, ptr %57, align 4
  tail call void @InitResultRelInfo(ptr noundef nonnull %56, ptr noundef %52, i32 noundef 0, ptr noundef %2, i32 noundef %58)
  %59 = load ptr, ptr %36, align 8
  %60 = tail call ptr @lappend(ptr noundef %59, ptr noundef nonnull %56) #9
  store ptr %60, ptr %36, align 8
  store ptr %55, ptr @CurrentMemoryContext, align 8
  br label %.loopexit

.loopexit:                                        ; preds = %12, %28, %44, %._crit_edge106
  %.1 = phi ptr [ %56, %._crit_edge106 ], [ %46, %44 ], [ %30, %28 ], [ %14, %12 ]
  ret ptr %.1
}